; Function Attrs: nounwind uwtable
define hidden range(i32 -1, 1) i32 @timelib_apply_localtime(ptr noundef %0, i32 noundef %1) local_unnamed_addr #3 {
  %.not = icmp eq i32 %1, 0
  br i1 %.not, label %9, label %3

3:                                                ; preds = %2
  %4 = getelementptr inbounds nuw i8, ptr %0, i64 72
  %5 = load ptr, ptr %4, align 8, !tbaa !26
  %.not6 = icmp eq ptr %5, null
  br i1 %.not6, label %62, label %6

6:                                                ; preds = %3
  %7 = getelementptr inbounds nuw i8, ptr %0, i64 192
  %8 = load i64, ptr %7, align 8, !tbaa !20
  tail call void @timelib_unixtime2local(ptr noundef nonnull %0, i64 noundef %8)
  br label %62

9:                                                ; preds = %2
  %10 = getelementptr inbounds nuw i8, ptr %0, i64 192
  %11 = load i64, ptr %10, align 8, !tbaa !20
  %12 = getelementptr inbounds nuw i8, ptr %0, i64 8
  %13 = getelementptr inbounds nuw i8, ptr %0, i64 16
  %14 = sdiv i64 %11, 86400
  %15 = add nsw i64 %14, 719468
  %16 = srem i64 %11, 86400
  %.lobit.i.i = ashr i64 %16, 63
  %17 = add nsw i64 %15, %.lobit.i.i
  %18 = add nsw i64 %17, -146096
  %19 = icmp slt i64 %17, 0
  %20 = select i1 %19, i64 %18, i64 %17
  %21 = sdiv i64 %20, 146097
  %.neg.i.i = mul nsw i64 %21, -146097
  %22 = add nsw i64 %.neg.i.i, %17
  %23 = udiv i64 %22, 1460
  %24 = udiv i64 %22, 36524
  %25 = udiv i64 %22, 146096
  %.neg8 = add nsw i64 %24, %22
  %26 = add nuw nsw i64 %25, %23
  %27 = sub nsw i64 %.neg8, %26
  %28 = udiv i64 %27, 365
  %29 = mul nsw i64 %21, 400
  %30 = add nsw i64 %28, %29
  %31 = udiv i64 %27, 1460
  %32 = udiv i64 %27, 36500
  %.neg35.i.i = mul i64 %28, -365
  %.neg36.i.i = sub nsw i64 %22, %31
  %.neg28.i.i = add nsw i64 %.neg36.i.i, %32
  %33 = add i64 %.neg28.i.i, %.neg35.i.i
  %34 = mul i64 %33, 5
  %35 = add i64 %34, 2
  %36 = udiv i64 %35, 153
  %37 = mul nuw i64 %36, 153
  %38 = add nuw i64 %37, 2
  %39 = udiv i64 %38, 5
  %40 = add i64 %33, 1
  %41 = sub i64 %40, %39
  store i64 %41, ptr %13, align 8, !tbaa !4
  %42 = icmp ult i64 %35, 1530
  %43 = select i1 %42, i64 3, i64 -9
  %44 = add nsw i64 %43, %36
  store i64 %44, ptr %12, align 8, !tbaa !4
  %45 = icmp slt i64 %44, 3
  %46 = zext i1 %45 to i64
  %47 = add nsw i64 %30, %46
  store i64 %47, ptr %0, align 8, !tbaa !4
  %isneg.i = icmp slt i64 %16, 0
  %48 = select i1 %isneg.i, i64 86400, i64 0
  %49 = add nsw i64 %48, %16
  %.lhs.trunc.i = trunc nsw i64 %49 to i32
  %50 = udiv i32 %.lhs.trunc.i, 3600
  %.zext.i = zext nneg i32 %50 to i64
  %.neg.i = mul nuw nsw i64 %.zext.i, 4294963696
  %51 = add nuw nsw i64 %.neg.i, %49
  %.lhs.trunc23.i = trunc i64 %51 to i32
  %52 = sdiv i32 %.lhs.trunc23.i, 60
  %.sext.i = sext i32 %52 to i64
  %53 = urem i32 %.lhs.trunc.i, 60
  %.zext25.i = zext nneg i32 %53 to i64
  %54 = getelementptr inbounds nuw i8, ptr %0, i64 24
  store i64 %.zext.i, ptr %54, align 8, !tbaa !8
  %55 = getelementptr inbounds nuw i8, ptr %0, i64 32
  store i64 %.sext.i, ptr %55, align 8, !tbaa !16
  %56 = getelementptr inbounds nuw i8, ptr %0, i64 40
  store i64 %.zext25.i, ptr %56, align 8, !tbaa !17
  %57 = getelementptr inbounds nuw i8, ptr %0, i64 56
  store i32 0, ptr %57, align 8, !tbaa !18
  %58 = getelementptr inbounds nuw i8, ptr %0, i64 80
  store i32 0, ptr %58, align 8, !tbaa !19
  %59 = getelementptr inbounds nuw i8, ptr %0, i64 220
  store i32 1, ptr %59, align 4, !tbaa !21
  %60 = getelementptr inbounds nuw i8, ptr %0, i64 224
  store i32 1, ptr %60, align 8, !tbaa !22
  %61 = getelementptr inbounds nuw i8, ptr %0, i64 228
  store i32 0, ptr %61, align 4, !tbaa !23
  br label %62

62:                                               ; preds = %6, %9, %3
  %.0 = phi i32 [ -1, %3 ], [ 0, %9 ], [ 0, %6 ]
  ret i32 %.0
}